; Function Attrs: mustprogress uwtable
define void @cvDistTransform(ptr noundef %0, ptr noundef %1, i32 noundef %2, i32 noundef %3, ptr noundef readnone captures(none) %4, ptr noundef %5, i32 noundef %6) local_unnamed_addr #5 personality ptr @__gxx_personality_v0 {
  %8 = alloca %"class.cv::Mat", align 8
  %9 = alloca %"class.cv::Mat", align 8
  %10 = alloca %"class.cv::Mat", align 8
  %11 = alloca %"class.cv::_InputArray", align 8
  %12 = alloca %"class.cv::_OutputArray", align 8
  %13 = alloca %"class.cv::_OutputArray", align 8
  call void @llvm.lifetime.start.p0(i64 96, ptr nonnull %8) #17
  call void @_ZN2cv10cvarrToMatEPKvbbiPNS_10AutoBufferIdLm136EEE(ptr dead_on_unwind nonnull writable sret(%"class.cv::Mat") align 8 %8, ptr noundef %0, i1 noundef zeroext false, i1 noundef zeroext true, i32 noundef 0, ptr noundef null)
  call void @llvm.lifetime.start.p0(i64 96, ptr nonnull %9) #17
  invoke void @_ZN2cv10cvarrToMatEPKvbbiPNS_10AutoBufferIdLm136EEE(ptr dead_on_unwind nonnull writable sret(%"class.cv::Mat") align 8 %9, ptr noundef %1, i1 noundef zeroext false, i1 noundef zeroext true, i32 noundef 0, ptr noundef null)
          to label %14 unwind label %24

14:                                               ; preds = %7
  call void @llvm.lifetime.start.p0(i64 96, ptr nonnull %10) #17
  invoke void @_ZN2cv10cvarrToMatEPKvbbiPNS_10AutoBufferIdLm136EEE(ptr dead_on_unwind nonnull writable sret(%"class.cv::Mat") align 8 %10, ptr noundef %5, i1 noundef zeroext false, i1 noundef zeroext true, i32 noundef 0, ptr noundef null)
          to label %15 unwind label %26

15:                                               ; preds = %14
  call void @llvm.lifetime.start.p0(i64 24, ptr nonnull %11) #17
  %16 = getelementptr inbounds nuw i8, ptr %11, i64 16
  store i32 0, ptr %16, align 8, !tbaa !88
  %17 = getelementptr inbounds nuw i8, ptr %11, i64 20
  store i32 0, ptr %17, align 4, !tbaa !89
  store i32 16842752, ptr %11, align 8, !tbaa !77
  %18 = getelementptr inbounds nuw i8, ptr %11, i64 8
  store ptr %8, ptr %18, align 8, !tbaa !3
  call void @llvm.lifetime.start.p0(i64 24, ptr nonnull %12) #17
  %19 = getelementptr inbounds nuw i8, ptr %12, i64 8
  %20 = getelementptr inbounds nuw i8, ptr %12, i64 16
  store i64 0, ptr %20, align 8
  store i32 -1040121856, ptr %12, align 8, !tbaa !77
  store ptr %9, ptr %19, align 8, !tbaa !3
  call void @llvm.lifetime.start.p0(i64 24, ptr nonnull %13) #17
  %.not = icmp eq ptr %5, null
  %spec.select = select i1 %.not, i32 33554432, i32 -1040121856
  %spec.select19 = select i1 %.not, ptr null, ptr %10
  %21 = getelementptr inbounds nuw i8, ptr %13, i64 16
  store i64 0, ptr %21, align 8
  store i32 %spec.select, ptr %13, align 8, !tbaa !77
  %22 = getelementptr inbounds nuw i8, ptr %13, i64 8
  store ptr %spec.select19, ptr %22, align 8, !tbaa !3
  invoke void @_ZN2cv17distanceTransformERKNS_11_InputArrayERKNS_12_OutputArrayES5_iii(ptr noundef nonnull align 8 dereferenceable(24) %11, ptr noundef nonnull align 8 dereferenceable(24) %12, ptr noundef nonnull align 8 dereferenceable(24) %13, i32 noundef %2, i32 noundef %3, i32 noundef %6)
          to label %23 unwind label %28

23:                                               ; preds = %15
  call void @llvm.lifetime.end.p0(i64 24, ptr nonnull %13) #17
  call void @llvm.lifetime.end.p0(i64 24, ptr nonnull %12) #17
  call void @llvm.lifetime.end.p0(i64 24, ptr nonnull %11) #17
  call void @_ZN2cv3MatD1Ev(ptr noundef nonnull align 8 dereferenceable(96) %10) #17
  call void @llvm.lifetime.end.p0(i64 96, ptr nonnull %10) #17
  call void @_ZN2cv3MatD1Ev(ptr noundef nonnull align 8 dereferenceable(96) %9) #17
  call void @llvm.lifetime.end.p0(i64 96, ptr nonnull %9) #17
  call void @_ZN2cv3MatD1Ev(ptr noundef nonnull align 8 dereferenceable(96) %8) #17
  call void @llvm.lifetime.end.p0(i64 96, ptr nonnull %8) #17
  ret void

24:                                               ; preds = %7
  %25 = landingpad { ptr, i32 }
          cleanup
  br label %31

26:                                               ; preds = %14
  %27 = landingpad { ptr, i32 }
          cleanup
  br label %30

28:                                               ; preds = %15
  %29 = landingpad { ptr, i32 }
          cleanup
  call void @llvm.lifetime.end.p0(i64 24, ptr nonnull %13) #17
  call void @llvm.lifetime.end.p0(i64 24, ptr nonnull %12) #17
  call void @llvm.lifetime.end.p0(i64 24, ptr nonnull %11) #17
  call void @_ZN2cv3MatD1Ev(ptr noundef nonnull align 8 dereferenceable(96) %10) #17
  br label %30

30:                                               ; preds = %28, %26
  %.pn.pn.pn.pn = phi { ptr, i32 } [ %29, %28 ], [ %27, %26 ]
  call void @llvm.lifetime.end.p0(i64 96, ptr nonnull %10) #17
  call void @_ZN2cv3MatD1Ev(ptr noundef nonnull align 8 dereferenceable(96) %9) #17
  br label %31

31:                                               ; preds = %30, %24
  %.pn.pn.pn.pn.pn = phi { ptr, i32 } [ %.pn.pn.pn.pn, %30 ], [ %25, %24 ]
  call void @llvm.lifetime.end.p0(i64 96, ptr nonnull %9) #17
  call void @_ZN2cv3MatD1Ev(ptr noundef nonnull align 8 dereferenceable(96) %8) #17
  call void @llvm.lifetime.end.p0(i64 96, ptr nonnull %8) #17
  resume { ptr, i32 } %.pn.pn.pn.pn.pn
}